; ModuleID = '56/1717.c'
source_filename = "56/1717.c"
target datalayout = "e-m:e-p270:32:32-p271:32:32-p272:64:64-i64:64-f80:128-n8:16:32:64-S128"
target triple = "x86_64-pc-linux-gnu"

@.str = private unnamed_addr constant [3 x i8] c"%d\00", align 1
@.str.1 = private unnamed_addr constant [11 x i8] c"%d%d%d%d%d\00", align 1
@.str.2 = private unnamed_addr constant [9 x i8] c"%d%d%d%d\00", align 1
@.str.3 = private unnamed_addr constant [8 x i8] c"%d%d%d%\00", align 1
@.str.4 = private unnamed_addr constant [5 x i8] c"%d%d\00", align 1

; Function Attrs: noinline nounwind uwtable
define dso_local i32 @main() #0 {
  %1 = alloca i32, align 4
  %2 = alloca i32, align 4
  %3 = alloca i32, align 4
  %4 = alloca i32, align 4
  %5 = alloca i32, align 4
  %6 = alloca i32, align 4
  %7 = alloca i32, align 4
  store i32 0, i32* %1, align 4
  %8 = call i32 (i8*, ...) @__isoc99_scanf(i8* getelementptr inbounds ([3 x i8], [3 x i8]* @.str, i64 0, i64 0), i32* %2)
  %9 = load i32, i32* %2, align 4
  %10 = sdiv i32 %9, 10000
  store i32 %10, i32* %3, align 4
  %11 = load i32, i32* %2, align 4
  %12 = sdiv i32 %11, 1000
  %13 = load i32, i32* %3, align 4
  %14 = mul nsw i32 10, %13
  %15 = sub nsw i32 %12, %14
  store i32 %15, i32* %4, align 4
  %16 = load i32, i32* %2, align 4
  %17 = sdiv i32 %16, 100
  %18 = load i32, i32* %3, align 4
  %19 = mul nsw i32 100, %18
  %20 = sub nsw i32 %17, %19
  %21 = load i32, i32* %4, align 4
  %22 = mul nsw i32 10, %21
  %23 = sub nsw i32 %20, %22
  store i32 %23, i32* %5, align 4
  %24 = load i32, i32* %2, align 4
  %25 = sdiv i32 %24, 10
  %26 = load i32, i32* %3, align 4
  %27 = mul nsw i32 1000, %26
  %28 = sub nsw i32 %25, %27
  %29 = load i32, i32* %4, align 4
  %30 = mul nsw i32 100, %29
  %31 = sub nsw i32 %28, %30
  %32 = load i32, i32* %5, align 4
  %33 = mul nsw i32 10, %32
  %34 = sub nsw i32 %31, %33
  store i32 %34, i32* %6, align 4
  %35 = load i32, i32* %2, align 4
  %36 = srem i32 %35, 10
  store i32 %36, i32* %7, align 4
  %37 = load i32, i32* %3, align 4
  %38 = icmp ne i32 %37, 0
  br i1 %38, label %39, label %46

39:                                               ; preds = %0
  %40 = load i32, i32* %7, align 4
  %41 = load i32, i32* %6, align 4
  %42 = load i32, i32* %5, align 4
  %43 = load i32, i32* %4, align 4
  %44 = load i32, i32* %3, align 4
  %45 = call i32 (i8*, ...) @printf(i8* getelementptr inbounds ([11 x i8], [11 x i8]* @.str.1, i64 0, i64 0), i32 %40, i32 %41, i32 %42, i32 %43, i32 %44)
  br label %76

46:                                               ; preds = %0
  %47 = load i32, i32* %4, align 4
  %48 = icmp ne i32 %47, 0
  br i1 %48, label %49, label %55

49:                                               ; preds = %46
  %50 = load i32, i32* %7, align 4
  %51 = load i32, i32* %6, align 4
  %52 = load i32, i32* %5, align 4
  %53 = load i32, i32* %4, align 4
  %54 = call i32 (i8*, ...) @printf(i8* getelementptr inbounds ([9 x i8], [9 x i8]* @.str.2, i64 0, i64 0), i32 %50, i32 %51, i32 %52, i32 %53)
  br label %75

55:                                               ; preds = %46
  %56 = load i32, i32* %5, align 4
  %57 = icmp ne i32 %56, 0
  br i1 %57, label %58, label %63

58:                                               ; preds = %55
  %59 = load i32, i32* %7, align 4
  %60 = load i32, i32* %6, align 4
  %61 = load i32, i32* %5, align 4
  %62 = call i32 (i8*, ...) @printf(i8* getelementptr inbounds ([8 x i8], [8 x i8]* @.str.3, i64 0, i64 0), i32 %59, i32 %60, i32 %61)
  br label %74

63:                                               ; preds = %55
  %64 = load i32, i32* %6, align 4
  %65 = icmp ne i32 %64, 0
  br i1 %65, label %66, label %70

66:                                               ; preds = %63
  %67 = load i32, i32* %7, align 4
  %68 = load i32, i32* %6, align 4
  %69 = call i32 (i8*, ...) @printf(i8* getelementptr inbounds ([5 x i8], [5 x i8]* @.str.4, i64 0, i64 0), i32 %67, i32 %68)
  br label %73

70:                                               ; preds = %63
  %71 = load i32, i32* %7, align 4
  %72 = call i32 (i8*, ...) @printf(i8* getelementptr inbounds ([3 x i8], [3 x i8]* @.str, i64 0, i64 0), i32 %71)
  br label %73

73:                                               ; preds = %70, %66
  br label %74

74:                                               ; preds = %73, %58
  br label %75

75:                                               ; preds = %74, %49
  br label %76

76:                                               ; preds = %75, %39
  ret i32 0
}

declare dso_local i32 @__isoc99_scanf(i8*, ...) #1

declare dso_local i32 @printf(i8*, ...) #1


!llvm.module.flags = !{!0}
!llvm.ident = !{!1}

!0 = !{i32 1, !"wchar_size", i32 4}
!1 = !{!"clang version 10.0.0-4ubuntu1 "}
